(dp0
S'bryans'
p1
(dp2
(Va
p3
Vcorbis
p4
tp5
(lp6
Vdba
p7
as(V=
p8
Vmemberuid;
p9
tp10
(lp11
S'\n'
p12
as(Vjamiehandbryans.areeditingordersservice();
p13
S'\n'
p14
tp15
(lp16
g14
as(Va
p17
Vbool
p18
tp19
(lp20
S'\n'
p21
as(Vnew
p22
Vstok();
p23
tp24
(lp25
Vstok.actualmemberuid
p26
as(Vstok.effectivememberuid
p27
g8
tp28
(lp29
Vmemberuid;
p30
as(Vknow
p31
S'\n'
p32
tp33
(lp34
g32
as(g18
g21
tp35
(lp36
g21
as(Vjamieh?
p37
S'\n'
p38
tp39
(lp40
g38
as(Vi
p41
Vhope
p42
tp43
(lp44
Vthats
p45
as(Vto
p46
Vview
p47
tp48
(lp49
Vthe
p50
as(g42
g45
tp51
(lp52
g17
as(Vdont
p53
g31
tp54
(lp55
g32
as(Vthe
p56
Vordersservice?
p57
tp58
(lp59
S'\n'
p60
as(Vstok.ineffectivememberuid
p61
Vfor
p62
tp63
(lp64
Vthat
p65
as(g62
g65
tp66
(lp67
Vmatter?
p68
as(g7
V:)
p69
tp70
(lp71
S'\n'
p72
as(Vas
p73
Vive
p74
tp75
(lp76
Vhad
p77
as(g4
g7
tp78
(lp79
g69
as(V=
p80
Vfalse;
p81
tp82
(lp83
S'\n'
p84
as(Vwhere
p85
Vis
p86
tp87
(lp88
Vstok.potentialmemberuid?
p89
as(g30
g12
tp90
(lp91
g12
as(Vor
p92
g61
tp93
(lp94
g62
as(g77
Vit
p95
tp96
(lp97
S'\n'
p98
as(Vyou
p99
Vseein
p100
tp101
(lp102
Vthat?
p103
as(Vable
p104
g46
tp105
(lp106
g47
as(Vstok.ed
p107
g80
tp108
(lp109
g13
as(g8
g22
tp110
(lp111
g23
as(g89
S'\n'
p112
tp113
(lp114
g112
as(g95
g98
tp115
(lp116
g98
as(Vfancies
p117
Vhimself
p118
tp119
(lp120
g3
as(Vas
p121
Vlong
p122
tp123
(lp124
g73
as(g74
g77
tp125
(lp126
g95
as(g69
g72
tp127
(lp128
g72
as(Vstok
p129
g8
tp130
(lp131
g22
as(g122
g73
tp132
(lp133
g74
as(g47
g50
tp134
(lp135
Vtable
p136
as(g68
S'\n'
p137
tp138
(lp139
g137
as(g81
g84
tp140
(lp141
g84
as(g9
g27
tp142
(lp143
g8
as(Vi
p144
g53
tp145
(lp146
g31
as(g57
g60
tp147
(lp148
g60
as(Vwhere
p149
g99
tp150
(lp151
g100
as(g65
g68
tp152
(lp153
g137
as(g86
g89
tp154
(lp155
g112
as(g100
g103
tp156
(lp157
S'\n'
p158
as(Vjamieh
p159
g117
tp160
(lp161
g118
as(g118
g3
tp162
(lp163
g4
as(g26
g8
tp164
(lp165
g9
as(g23
g26
tp166
(lp167
g8
as(Vstok
p168
g129
tp169
(lp170
g8
as(g103
g158
tp171
(lp172
g158
as(Vbecause
p173
g144
tp174
(lp175
g53
as(Vin
p176
g56
tp177
(lp178
g57
as(g136
g37
tp179
(lp180
g38
as(V=
p181
g13
tp182
(lp183
g14
as(g45
g17
tp184
(lp185
g18
as(Vyou
p186
g104
tp187
(lp188
g46
as(g50
g136
tp189
(lp190
g37
assS'jamieh'
p191
(dp192
(Vbe
p193
Vable
p194
tp195
(lp196
Vto
p197
as(Vvery
p198
Vcraftily
p199
tp200
(lp201
Vdiverted
p202
as(Vnot
p203
Vlike
p204
tp205
(lp206
Vme
p207
as(Vyou
p208
Vstart
p209
tp210
(lp211
Vworking?
p212
as(Vforgotten
p213
Vabout
p214
tp215
(lp216
Vthis
p217
as(Vthat
p218
S'\n'
p219
tp220
(lp221
g219
as(V=
p222
Vsecurity
p223
tp224
(lp225
Vtoken?
p226
as(Vbetter
p227
Vnow?
p228
tp229
(lp230
S'\n'
p231
as(Vto
p232
Vbring
p233
tp234
(lp235
Vanyone
p236
as(Vnoticed
p237
Vhow
p238
tp239
(lp240
Vwell
p241
as(Vdont
p242
Vworry
p243
tp244
(lp245
Vabout
p246
as(Vill
p247
Vnever
p248
tp249
(lp250
g193
as(Vsay
p251
Vsome
p252
tp253
(lp254
Vmore
p255
as(Vhad
p256
Va
p257
tp258
(lp259
Vsql
p260
as(Von
p261
Vit
p262
tp263
(lp264
S'\n'
p265
as(Vworking
p266
g261
tp267
(lp268
g262
as(g252
g255
tp269
(lp270
Vthings
p271
as(Vnow
p272
Vhow
p273
tp274
(lp275
Vare
p276
as(g194
g197
tp277
(lp278
Vwake
p279
as(Vwhats
p280
Vgoing
p281
tp282
(lp283
Von
p284
as(Vthat
p285
Vbrain
p286
tp287
(lp288
Vof
p289
as(Vjust
p290
Vhad
p291
tp292
(lp293
Vto
p294
as(Vdidnt
p295
Vanswer
p296
tp297
(lp298
Vmy
p299
as(Vive
p300
Vgone
p301
tp302
(lp303
Vtoo
p304
as(Vif
p305
V(istok.ed)
p306
tp307
(lp308
V{
p309
as(Vwhen
p310
Vim
p311
tp312
(lp313
Vthirsty
p314
as(Vdo
p315
g310
tp316
(lp317
g311
as(g314
S'\n'
p318
tp319
(lp320
g318
as(Vfor
p321
Vsize
p322
tp323
(lp324
S'\n'
p325
as(Vis
p326
Vit
p327
tp328
(lp329
Vbetter?
p330
as(Vgoing
p331
Vto
p332
tp333
(lp334
Vmerge
p335
as(Vlot
p336
Vof
p337
tp338
(lp339
Vpushups
p340
as(Vhurt,
p341
Vi
p342
tp343
(lp344
Vtell
p345
as(Vwill
p346
g208
tp347
(lp348
g209
as(Vgo
p349
Vdigging,
p350
tp351
(lp352
Vjust
p353
as(Vnot,
p354
Vi
p355
tp356
(lp357
Vtip
p358
as(g340
S'\n'
p359
tp360
(lp361
g359
as(Vnot
p362
Vbad...
p363
tp364
(lp365
Vkeep
p366
as(g301
g304
tp367
(lp368
Vdeep...
p369
as(Vwont
p370
Vyou
p371
tp372
(lp373
Vsay
p374
as(Vto
p375
Vget
p376
tp377
(lp378
Von
p379
as(g223
g226
tp380
(lp381
S'\n'
p382
as(Vnot
p383
Vanswer
p384
tp385
(lp386
Vit.
p387
as(g342
g345
tp388
(lp389
Vya
p390
as(g311
g314
tp391
(lp392
g318
as(Vim
p393
g331
tp394
(lp395
g332
as(Vwant
p396
Vto
p397
tp398
(lp399
g233
as(g371
g374
tp400
(lp401
Vanything?
p402
as(Vvery
p403
Vshort
p404
tp405
(lp406
Vattention
p407
as(g207
Vat
p408
tp409
(lp410
Vall
p411
as(g299
Vquestion.
p412
tp413
(lp414
S'\n'
p415
as(g363
g366
tp416
(lp417
g266
as(Vcrappy
p418
Vcode
p419
tp420
(lp421
S'\n'
p422
as(g273
g276
tp423
(lp424
Vyou
p425
as(g271
g346
tp426
(lp427
g208
as(Vstraight
p428
Vsql,
p429
tp430
(lp431
Vlike
p432
as(g379
g218
tp433
(lp434
g219
as(Vwhere
p435
Vyou
p436
tp437
(lp438
Vjust
p439
as(Vjust
p440
g237
tp441
(lp442
g238
as(g432
Vits
p443
tp444
(lp445
Vquery
p446
as(g337
g340
tp447
(lp448
g359
as(g446
Vanalyzer?
p449
tp450
(lp451
S'\n'
p452
as(g217
Vsql
p453
tp454
(lp455
Voption...
p456
as(g376
g379
tp457
(lp458
g218
as(g241
Vyou
p459
tp460
(lp461
g295
as(Vtry
p462
Vthis
p463
tp464
(lp465
g321
as(Vspan
p466
Vto
p467
tp468
(lp469
g383
as(Vmy
p470
g403
tp471
(lp472
g404
as(Vfeeling
p473
g227
tp474
(lp475
g228
as(Vi
p476
Vdo
p477
tp478
(lp479
g310
as(g425
Vdoing?
p480
tp481
(lp482
S'\n'
p483
as(Vimplant
p484
S'\n'
p485
tp486
(lp487
g485
as(Vhead
p488
g341
tp489
(lp490
g342
as(g477
Va
p491
tp492
(lp493
g336
as(Vthat?
p494
S'\n'
p495
tp496
(lp497
g495
as(Vtwss
p498
Vmarvin
p499
tp500
(lp501
g484
as(g322
g325
tp502
(lp503
g325
as(Vonly
p504
Vmode?
p505
tp506
(lp507
S'\n'
p508
as(Vfound
p509
Venough
p510
tp511
(lp512
S'\n'
p513
as(Vin
p514
Vcorbis.orders.businessactions.v2.dataaccess
p515
tp516
(lp517
S'\n'
p518
as(Vmy
p519
Vhat.
p520
tp521
(lp522
S'\n'
p523
as(Vi
p524
g251
tp525
(lp526
g252
as(g335
Vsome
p527
tp528
(lp529
Vstuff
p530
as(g238
g241
tp531
(lp532
g459
as(Vin
p533
g285
tp534
(lp535
g286
as(Vwas
p536
g494
tp537
(lp538
g495
as(g499
g484
tp539
(lp540
g485
as(g226
g382
tp541
(lp542
g382
as(g397
Vknow
p543
tp544
(lp545
g280
as(Vneed
p546
g375
tp547
(lp548
g376
as(g520
g523
tp549
(lp550
g523
as(g456
S'\n'
p551
tp552
(lp553
g551
as(Vstok
p554
Vstok
p555
tp556
(lp557
V=
p558
as(g212
S'\n'
p559
tp560
(lp561
g559
as(Vboss
p562
S'\n'
p563
tp564
(lp565
g563
as(Vnow
p566
g326
tp567
(lp568
g327
as(g233
g236
tp569
(lp570
Velse
p571
as(Vmy
p572
Vinception
p573
tp574
(lp575
S'\n'
p576
as(Vi
p577
Vdont
p578
tp579
(lp580
Vwant
p581
as(g332
g335
tp582
(lp583
g527
as(g257
g260
tp584
(lp585
g504
as(g439
Vrun
p586
tp587
(lp588
g428
as(g390
S'\n'
p589
tp590
(lp591
g589
as(g408
g411
tp592
(lp593
S'\n'
p594
as(g459
g295
tp595
(lp596
g296
as(g571
Vinto
p597
tp598
(lp599
g572
as(Vyou
p600
g198
tp601
(lp602
g199
as(g467
g383
tp603
(lp604
g384
as(Vcreatestokformember(memberuid,
p605
Vlanguageid,
p606
tp607
(lp608
Vcountrycode);
p609
as(g330
S'\n'
p610
tp611
(lp612
g610
as(Vor
p613
g354
tp614
(lp615
g355
as(g350
g353
tp616
(lp617
Vcurious
p618
as(g597
g572
tp619
(lp620
g573
as(Vup
p621
S'\n'
p622
tp623
(lp624
g622
as(Vsome
p625
g418
tp626
(lp627
g419
as(Vshe....
p628
S'\n'
p629
tp630
(lp631
g629
as(g407
g466
tp632
(lp633
g467
as(g515
g518
tp634
(lp635
g518
as(Vthe
p636
g498
tp637
(lp638
g499
as(g355
g358
tp639
(lp640
g519
as(Vmakes
p641
Vmy
p642
tp643
(lp644
g488
as(g404
g407
tp645
(lp646
g466
as(Vyours
p647
S'\n'
p648
tp649
(lp650
g648
as(g480
g483
tp651
(lp652
g483
as(Vreally
p653
g396
tp654
(lp655
g397
as(Vbut
p656
g600
tp657
(lp658
g198
as(Vi
p659
Vmustve
p660
tp661
(lp662
g213
as(g578
g581
tp663
(lp664
g232
as(g304
g369
tp665
(lp666
g247
as(g281
g284
tp667
(lp668
g533
as(g199
g202
tp669
(lp670
g470
as(Valways
p671
g256
tp672
(lp673
g257
as(g606
g609
tp674
(lp675
S'\n'
p676
as(g279
g621
tp677
(lp678
g622
as(Vhas
p679
Vlinqpad
p680
tp681
(lp682
g671
as(Vif
p683
g524
tp684
(lp685
g251
as(g412
g415
tp686
(lp687
g415
as(g609
g676
tp688
(lp689
g676
as(Vintentional
p690
g613
tp691
(lp692
g354
as(g214
g217
tp693
(lp694
g453
as(g527
g530
tp695
(lp696
S'\n'
p697
as(Vreally
p698
g546
tp699
(lp700
g375
as(g443
g446
tp701
(lp702
g449
as(g260
g504
tp703
(lp704
g505
as(Vbetter
p705
S'\n'
p706
tp707
(lp708
g706
as(Va
p709
g562
tp710
(lp711
g563
as(g680
g671
tp712
(lp713
g256
as(g197
g279
tp714
(lp715
g621
as(g453
g456
tp716
(lp717
g551
as(g411
g594
tp718
(lp719
g594
as(g543
g280
tp720
(lp721
g281
as(Vwhy
p722
g370
tp723
(lp724
g371
as(g228
g231
tp725
(lp726
g231
as(g374
g402
tp727
(lp728
S'\n'
p729
as(Vthats
p730
Vwhat
p731
tp732
(lp733
g628
as(Vit
p734
S'\n'
p735
tp736
(lp737
g265
as(g530
g697
tp738
(lp739
g697
as(g387
g690
tp740
(lp741
g613
as(Vcapacity
p742
V=
p743
tp744
(lp745
Vint.minvalue();}
p746
as(g286
g289
tp747
(lp748
g647
as(g345
g390
tp749
(lp750
g589
as(Vthats
p751
Vmuch
p752
tp753
(lp754
g705
as(g243
g246
tp755
(lp756
g734
as(g419
g422
tp757
(lp758
g422
as(Vman,
p759
Vi
p760
tp761
(lp762
g698
as(g289
g647
tp763
(lp764
g648
as(g246
g734
tp765
(lp766
g735
as(g618
S'\n'
p767
tp768
(lp769
g767
as(Vc1helper
p770
g514
tp771
(lp772
g515
as(g236
g571
tp773
(lp774
g597
as(Vi
p775
g440
tp776
(lp777
g237
as(g369
g247
tp778
(lp779
g248
as(g573
g576
tp780
(lp781
g576
as(Vive
p782
g509
tp783
(lp784
g510
as(g660
g213
tp785
(lp786
g214
as(g402
g729
tp787
(lp788
g729
as(g284
g533
tp789
(lp790
g285
as(g510
g513
tp791
(lp792
g513
as(g366
g266
tp793
(lp794
g261
as(g209
g212
tp795
(lp796
g559
as(g353
g618
tp797
(lp798
g767
as(g248
g193
tp799
(lp800
g194
as(g291
g294
tp801
(lp802
Vremove
p803
as(g586
g428
tp804
(lp805
g429
as(g436
g439
tp806
(lp807
g586
as(g294
g803
tp808
(lp809
g625
as(g449
g452
tp810
(lp811
g452
as(g202
g470
tp812
(lp813
g403
as(g491
g336
tp814
(lp815
g337
as(Vlike
p816
g709
tp817
(lp818
g562
as(g327
g330
tp819
(lp820
g610
as(g255
g271
tp821
(lp822
g346
as(Vstok
p823
g222
tp824
(lp825
g605
as(g743
g746
tp826
(lp827
S'\n'
p828
as(Vi
p829
g653
tp830
(lp831
g546
as(g803
g625
tp832
(lp833
g418
as(g642
g488
tp834
(lp835
g341
as(g505
g508
tp836
(lp837
g508
as(Vdont
p838
g349
tp839
(lp840
g350
as(g296
g299
tp841
(lp842
g412
as(g306
g309
tp843
(lp844
g742
as(g204
g207
tp845
(lp846
g408
as(g746
g828
tp847
(lp848
g828
as(Vwhat
p849
g536
tp850
(lp851
g494
as(g358
g519
tp852
(lp853
g520
as(g276
g425
tp854
(lp855
g480
as(g752
g705
tp856
(lp857
g706
as(g558
g605
tp858
(lp859
g606
as(Vthats
p860
g203
tp861
(lp862
g204
as(g731
g628
tp863
(lp864
g629
as(g429
g432
tp865
(lp866
g443
as(g463
g321
tp867
(lp868
g322
as(g384
g387
tp869
(lp870
g690
as(g309
g742
tp871
(lp872
g743
assS'BryanW'
p873
(dp874
s.